target datalayout = "e-m:e-p270:32:32-p271:32:32-p272:64:64-i64:64-i128:128-f80:128-n8:16:32:64-S128"
target triple = "x86_64-pc-linux-gnu"

%struct.Abc_Ntk_t_ = type { i32, i32, ptr, ptr, ptr, ptr, ptr, ptr, ptr, ptr, ptr, ptr, ptr, [11 x i32], i32, i32, i32, i32, ptr, i32, ptr, ptr, i32, i32, i32, double, i32, %struct.Vec_Int_t_, ptr, ptr, ptr, ptr, ptr, float, i32, ptr, ptr, ptr, ptr, ptr, ptr, ptr, ptr, ptr, ptr, ptr, ptr, ptr, ptr, ptr, ptr, ptr, ptr, ptr, ptr, ptr }
%struct.Vec_Int_t_ = type { i32, i32, ptr }
%struct.Vec_Ptr_t_ = type { i32, i32, ptr }
%struct.Abc_Obj_t_ = type { ptr, ptr, i32, i32, %struct.Vec_Int_t_, %struct.Vec_Int_t_, %union.anon, %union.anon.0 }
%union.anon = type { ptr }
%union.anon.0 = type { ptr }

; Function Attrs: nounwind uwtable
define internal ptr @Vec_PtrEntry(ptr noundef %0, i32 noundef %1) #0 {
  %3 = alloca ptr, align 8
  %4 = alloca i32, align 4
  store ptr %0, ptr %3, align 8
  store i32 %1, ptr %4, align 4
  %5 = load ptr, ptr %3, align 8
  %6 = getelementptr inbounds %struct.Vec_Ptr_t_, ptr %5, i32 0, i32 2
  %7 = load ptr, ptr %6, align 8
  %8 = load i32, ptr %4, align 4
  %9 = sext i32 %8 to i64
  %10 = getelementptr inbounds ptr, ptr %7, i64 %9
  %11 = load ptr, ptr %10, align 8
  ret ptr %11
}

; Function Attrs: nounwind uwtable
define internal i32 @Abc_ObjFanoutNum(ptr noundef %0) #0 {
  %2 = alloca ptr, align 8
  store ptr %0, ptr %2, align 8
  %3 = load ptr, ptr %2, align 8
  %4 = getelementptr inbounds %struct.Abc_Obj_t_, ptr %3, i32 0, i32 5
  %5 = getelementptr inbounds %struct.Vec_Int_t_, ptr %4, i32 0, i32 1
  %6 = load i32, ptr %5, align 4
  ret i32 %6
}

; Function Attrs: nounwind uwtable
define internal i32 @Abc_ObjIsNode(ptr noundef %0) #0 {
  %2 = alloca ptr, align 8
  store ptr %0, ptr %2, align 8
  %3 = load ptr, ptr %2, align 8
  %4 = getelementptr inbounds %struct.Abc_Obj_t_, ptr %3, i32 0, i32 3
  %5 = load i32, ptr %4, align 4
  %6 = and i32 %5, 15
  %7 = icmp eq i32 %6, 7
  %8 = zext i1 %7 to i32
  ret i32 %8
}

; Function Attrs: nounwind uwtable
define internal ptr @Abc_NtkObj(ptr noundef %0, i32 noundef %1) #0 {
  %3 = alloca ptr, align 8
  %4 = alloca i32, align 4
  store ptr %0, ptr %3, align 8
  store i32 %1, ptr %4, align 4
  %5 = load ptr, ptr %3, align 8
  %6 = getelementptr inbounds %struct.Abc_Ntk_t_, ptr %5, i32 0, i32 5
  %7 = load ptr, ptr %6, align 8
  %8 = load i32, ptr %4, align 4
  %9 = call ptr @Vec_PtrEntry(ptr noundef %7, i32 noundef %8)
  ret ptr %9
}

; Function Attrs: nounwind uwtable
define internal i32 @Vec_PtrSize(ptr noundef %0) #0 {
  %2 = alloca ptr, align 8
  store ptr %0, ptr %2, align 8
  %3 = load ptr, ptr %2, align 8
  %4 = getelementptr inbounds %struct.Vec_Ptr_t_, ptr %3, i32 0, i32 1
  %5 = load i32, ptr %4, align 4
  ret i32 %5
}

; Function Attrs: nounwind uwtable
define i32 @Abc_NtkGetMultiRefNum(ptr noundef %0) #0 {
  %2 = alloca ptr, align 8
  %3 = alloca ptr, align 8
  %4 = alloca i32, align 4
  %5 = alloca i32, align 4
  store ptr %0, ptr %2, align 8
  store i32 0, ptr %4, align 4
  store i32 0, ptr %5, align 4
  br label %6

6:                                                ; preds = %35, %1
  %7 = load i32, ptr %5, align 4
  %8 = load ptr, ptr %2, align 8
  %9 = getelementptr inbounds %struct.Abc_Ntk_t_, ptr %8, i32 0, i32 5
  %10 = load ptr, ptr %9, align 8
  %11 = call i32 @Vec_PtrSize(ptr noundef %10)
  %12 = icmp slt i32 %7, %11
  br i1 %12, label %13, label %17

13:                                               ; preds = %6
  %14 = load ptr, ptr %2, align 8
  %15 = load i32, ptr %5, align 4
  %16 = call ptr @Abc_NtkObj(ptr noundef %14, i32 noundef %15)
  store ptr %16, ptr %3, align 8
  br label %17

17:                                               ; preds = %13, %6
  %18 = phi i1 [ false, %6 ], [ true, %13 ]
  br i1 %18, label %19, label %38

19:                                               ; preds = %17
  %20 = load ptr, ptr %3, align 8
  %21 = icmp eq ptr %20, null
  br i1 %21, label %26, label %22

22:                                               ; preds = %19
  %23 = load ptr, ptr %3, align 8
  %24 = call i32 @Abc_ObjIsNode(ptr noundef %23)
  %25 = icmp ne i32 %24, 0
  br i1 %25, label %27, label %26

26:                                               ; preds = %22, %19
  br label %34

27:                                               ; preds = %22
  %28 = load ptr, ptr %3, align 8
  %29 = call i32 @Abc_ObjFanoutNum(ptr noundef %28)
  %30 = icmp sgt i32 %29, 1
  %31 = zext i1 %30 to i32
  %32 = load i32, ptr %4, align 4
  %33 = add nsw i32 %32, %31
  store i32 %33, ptr %4, align 4
  br label %34

34:                                               ; preds = %27, %26
  br label %35

35:                                               ; preds = %34
  %36 = load i32, ptr %5, align 4
  %37 = add nsw i32 %36, 1
  store i32 %37, ptr %5, align 4
  br label %6, !llvm.loop !18

38:                                               ; preds = %17
  %39 = load i32, ptr %4, align 4
  ret i32 %39
}